target datalayout = "e-m:e-p270:32:32-p271:32:32-p272:64:64-i64:64-i128:128-f80:128-n8:16:32:64-S128"
target triple = "x86_64-pc-linux-gnu"

%struct._lv_global_t = type { i8, i8, %struct.lv_ll_t, ptr, ptr, %struct.lv_ll_t, i8, i32, i32, ptr, %struct.lv_ll_t, ptr, %struct.lv_ll_t, ptr, ptr, i32, ptr, i8, i32, i32, ptr, i32, %struct.lv_timer_state_t, %struct.lv_anim_state_t, %struct.lv_tick_state_t, %struct._lv_draw_buf_handlers_t, %struct._lv_draw_buf_handlers_t, %struct._lv_draw_buf_handlers_t, %struct.lv_ll_t, ptr, ptr, %struct.lv_draw_global_info_t, [4 x %struct.lv_draw_sw_mask_radius_circle_dsc_t], ptr, ptr, ptr, %struct.lv_tlsf_state_t, %struct.lv_ll_t, ptr, ptr, %struct.lv_style_t, i64, ptr, i32, ptr }
%struct.lv_timer_state_t = type { %struct.lv_ll_t, i8, i8, i8, i8, i32, i8, i32, i32, i32, i32, ptr, ptr }
%struct.lv_anim_state_t = type { i8, i8, ptr, %struct.lv_ll_t }
%struct.lv_tick_state_t = type { i32, i8, ptr, ptr }
%struct._lv_draw_buf_handlers_t = type { ptr, ptr, ptr, ptr, ptr, ptr }
%struct.lv_draw_global_info_t = type { ptr, i32, i32, i32, i32, i8 }
%struct.lv_draw_sw_mask_radius_circle_dsc_t = type { ptr, ptr, ptr, ptr, i32, i32, i32 }
%struct.lv_tlsf_state_t = type { ptr, i64, i64, %struct.lv_ll_t }
%struct.lv_ll_t = type { i32, ptr, ptr }
%struct.lv_style_t = type { ptr, i32, i8 }
%struct._lv_display_t = type { i32, i32, i32, i32, i32, i32, i32, ptr, ptr, ptr, ptr, ptr, i32, i32, i8, i32, i16, i32, [32 x %struct.lv_area_t], [32 x i8], i32, i32, %struct.lv_ll_t, %struct._lv_draw_buf_t, %struct._lv_draw_buf_t, ptr, ptr, ptr, ptr, ptr, ptr, ptr, ptr, ptr, ptr, i32, i8, ptr, ptr, %struct.lv_event_list_t, i8, ptr, ptr, i32, %struct.lv_area_t }
%struct._lv_draw_buf_t = type { %struct.lv_image_header_t, i32, ptr, ptr, ptr }
%struct.lv_image_header_t = type <{ i64, i32 }>
%struct.lv_event_list_t = type { %struct._lv_array_t, i8 }
%struct._lv_array_t = type { ptr, i32, i32, i32, i8 }
%struct.lv_area_t = type { i32, i32, i32, i32 }

@lv_global = external global %struct._lv_global_t, align 8

; Function Attrs: nounwind uwtable
define ptr @lv_display_get_default() #0 {
  %1 = load ptr, ptr getelementptr inbounds nuw (%struct._lv_global_t, ptr @lv_global, i32 0, i32 4), align 8, !tbaa !35
  ret ptr %1
}

; Function Attrs: nounwind uwtable
define i32 @lv_display_get_rotation(ptr noundef %0) #0 {
  %2 = alloca i32, align 4
  %3 = alloca ptr, align 8
  store ptr %0, ptr %3, align 8, !tbaa !7
  %4 = load ptr, ptr %3, align 8, !tbaa !7
  %5 = icmp eq ptr %4, null
  br i1 %5, label %6, label %8

6:                                                ; preds = %1
  %7 = call ptr @lv_display_get_default()
  store ptr %7, ptr %3, align 8, !tbaa !7
  br label %8

8:                                                ; preds = %6, %1
  %9 = load ptr, ptr %3, align 8, !tbaa !7
  %10 = icmp eq ptr %9, null
  br i1 %10, label %11, label %12

11:                                               ; preds = %8
  store i32 0, ptr %2, align 4
  br label %18

12:                                               ; preds = %8
  %13 = load ptr, ptr %3, align 8, !tbaa !7
  %14 = getelementptr inbounds nuw %struct._lv_display_t, ptr %13, i32 0, i32 40
  %15 = load i8, ptr %14, align 8
  %16 = and i8 %15, 7
  %17 = zext i8 %16 to i32
  store i32 %17, ptr %2, align 4
  br label %18

18:                                               ; preds = %12, %11
  %19 = load i32, ptr %2, align 4
  ret i32 %19
}

; Function Attrs: nounwind uwtable
define void @lv_display_rotate_area(ptr noundef %0, ptr noundef %1) #0 {
  %3 = alloca ptr, align 8
  %4 = alloca ptr, align 8
  %5 = alloca i32, align 4
  %6 = alloca i32, align 4
  %7 = alloca i32, align 4
  %8 = alloca i32, align 4
  store ptr %0, ptr %3, align 8, !tbaa !7
  store ptr %1, ptr %4, align 8, !tbaa !7
  call void @llvm.lifetime.start.p0(i64 4, ptr %5) #5
  %9 = load ptr, ptr %3, align 8, !tbaa !7
  %10 = call i32 @lv_display_get_rotation(ptr noundef %9)
  store i32 %10, ptr %5, align 4, !tbaa !3
  call void @llvm.lifetime.start.p0(i64 4, ptr %6) #5
  %11 = load ptr, ptr %4, align 8, !tbaa !7
  %12 = call i32 @lv_area_get_width(ptr noundef %11)
  store i32 %12, ptr %6, align 4, !tbaa !3
  call void @llvm.lifetime.start.p0(i64 4, ptr %7) #5
  %13 = load ptr, ptr %4, align 8, !tbaa !7
  %14 = call i32 @lv_area_get_height(ptr noundef %13)
  store i32 %14, ptr %7, align 4, !tbaa !3
  %15 = load i32, ptr %5, align 4, !tbaa !3
  switch i32 %15, label %118 [
    i32 0, label %16
    i32 1, label %17
    i32 2, label %49
    i32 3, label %86
  ]

16:                                               ; preds = %2
  store i32 1, ptr %8, align 4
  br label %119

17:                                               ; preds = %2
  %18 = load ptr, ptr %3, align 8, !tbaa !7
  %19 = getelementptr inbounds nuw %struct._lv_display_t, ptr %18, i32 0, i32 1
  %20 = load i32, ptr %19, align 4, !tbaa !18
  %21 = load ptr, ptr %4, align 8, !tbaa !7
  %22 = getelementptr inbounds nuw %struct.lv_area_t, ptr %21, i32 0, i32 0
  %23 = load i32, ptr %22, align 4, !tbaa !87
  %24 = sub nsw i32 %20, %23
  %25 = sub nsw i32 %24, 1
  %26 = load ptr, ptr %4, align 8, !tbaa !7
  %27 = getelementptr inbounds nuw %struct.lv_area_t, ptr %26, i32 0, i32 3
  store i32 %25, ptr %27, align 4, !tbaa !88
  %28 = load ptr, ptr %4, align 8, !tbaa !7
  %29 = getelementptr inbounds nuw %struct.lv_area_t, ptr %28, i32 0, i32 1
  %30 = load i32, ptr %29, align 4, !tbaa !89
  %31 = load ptr, ptr %4, align 8, !tbaa !7
  %32 = getelementptr inbounds nuw %struct.lv_area_t, ptr %31, i32 0, i32 0
  store i32 %30, ptr %32, align 4, !tbaa !87
  %33 = load ptr, ptr %4, align 8, !tbaa !7
  %34 = getelementptr inbounds nuw %struct.lv_area_t, ptr %33, i32 0, i32 0
  %35 = load i32, ptr %34, align 4, !tbaa !87
  %36 = load i32, ptr %7, align 4, !tbaa !3
  %37 = add nsw i32 %35, %36
  %38 = sub nsw i32 %37, 1
  %39 = load ptr, ptr %4, align 8, !tbaa !7
  %40 = getelementptr inbounds nuw %struct.lv_area_t, ptr %39, i32 0, i32 2
  store i32 %38, ptr %40, align 4, !tbaa !90
  %41 = load ptr, ptr %4, align 8, !tbaa !7
  %42 = getelementptr inbounds nuw %struct.lv_area_t, ptr %41, i32 0, i32 3
  %43 = load i32, ptr %42, align 4, !tbaa !88
  %44 = load i32, ptr %6, align 4, !tbaa !3
  %45 = sub nsw i32 %43, %44
  %46 = add nsw i32 %45, 1
  %47 = load ptr, ptr %4, align 8, !tbaa !7
  %48 = getelementptr inbounds nuw %struct.lv_area_t, ptr %47, i32 0, i32 1
  store i32 %46, ptr %48, align 4, !tbaa !89
  br label %118

49:                                               ; preds = %2
  %50 = load ptr, ptr %3, align 8, !tbaa !7
  %51 = getelementptr inbounds nuw %struct._lv_display_t, ptr %50, i32 0, i32 1
  %52 = load i32, ptr %51, align 4, !tbaa !18
  %53 = load ptr, ptr %4, align 8, !tbaa !7
  %54 = getelementptr inbounds nuw %struct.lv_area_t, ptr %53, i32 0, i32 1
  %55 = load i32, ptr %54, align 4, !tbaa !89
  %56 = sub nsw i32 %52, %55
  %57 = sub nsw i32 %56, 1
  %58 = load ptr, ptr %4, align 8, !tbaa !7
  %59 = getelementptr inbounds nuw %struct.lv_area_t, ptr %58, i32 0, i32 3
  store i32 %57, ptr %59, align 4, !tbaa !88
  %60 = load ptr, ptr %4, align 8, !tbaa !7
  %61 = getelementptr inbounds nuw %struct.lv_area_t, ptr %60, i32 0, i32 3
  %62 = load i32, ptr %61, align 4, !tbaa !88
  %63 = load i32, ptr %7, align 4, !tbaa !3
  %64 = sub nsw i32 %62, %63
  %65 = add nsw i32 %64, 1
  %66 = load ptr, ptr %4, align 8, !tbaa !7
  %67 = getelementptr inbounds nuw %struct.lv_area_t, ptr %66, i32 0, i32 1
  store i32 %65, ptr %67, align 4, !tbaa !89
  %68 = load ptr, ptr %3, align 8, !tbaa !7
  %69 = getelementptr inbounds nuw %struct._lv_display_t, ptr %68, i32 0, i32 0
  %70 = load i32, ptr %69, align 8, !tbaa !9
  %71 = load ptr, ptr %4, align 8, !tbaa !7
  %72 = getelementptr inbounds nuw %struct.lv_area_t, ptr %71, i32 0, i32 0
  %73 = load i32, ptr %72, align 4, !tbaa !87
  %74 = sub nsw i32 %70, %73
  %75 = sub nsw i32 %74, 1
  %76 = load ptr, ptr %4, align 8, !tbaa !7
  %77 = getelementptr inbounds nuw %struct.lv_area_t, ptr %76, i32 0, i32 2
  store i32 %75, ptr %77, align 4, !tbaa !90
  %78 = load ptr, ptr %4, align 8, !tbaa !7
  %79 = getelementptr inbounds nuw %struct.lv_area_t, ptr %78, i32 0, i32 2
  %80 = load i32, ptr %79, align 4, !tbaa !90
  %81 = load i32, ptr %6, align 4, !tbaa !3
  %82 = sub nsw i32 %80, %81
  %83 = add nsw i32 %82, 1
  %84 = load ptr, ptr %4, align 8, !tbaa !7
  %85 = getelementptr inbounds nuw %struct.lv_area_t, ptr %84, i32 0, i32 0
  store i32 %83, ptr %85, align 4, !tbaa !87
  br label %118

86:                                               ; preds = %2
  %87 = load ptr, ptr %3, align 8, !tbaa !7
  %88 = getelementptr inbounds nuw %struct._lv_display_t, ptr %87, i32 0, i32 0
  %89 = load i32, ptr %88, align 8, !tbaa !9
  %90 = load ptr, ptr %4, align 8, !tbaa !7
  %91 = getelementptr inbounds nuw %struct.lv_area_t, ptr %90, i32 0, i32 3
  %92 = load i32, ptr %91, align 4, !tbaa !88
  %93 = sub nsw i32 %89, %92
  %94 = sub nsw i32 %93, 1
  %95 = load ptr, ptr %4, align 8, !tbaa !7
  %96 = getelementptr inbounds nuw %struct.lv_area_t, ptr %95, i32 0, i32 0
  store i32 %94, ptr %96, align 4, !tbaa !87
  %97 = load ptr, ptr %4, align 8, !tbaa !7
  %98 = getelementptr inbounds nuw %struct.lv_area_t, ptr %97, i32 0, i32 2
  %99 = load i32, ptr %98, align 4, !tbaa !90
  %100 = load ptr, ptr %4, align 8, !tbaa !7
  %101 = getelementptr inbounds nuw %struct.lv_area_t, ptr %100, i32 0, i32 3
  store i32 %99, ptr %101, align 4, !tbaa !88
  %102 = load ptr, ptr %4, align 8, !tbaa !7
  %103 = getelementptr inbounds nuw %struct.lv_area_t, ptr %102, i32 0, i32 0
  %104 = load i32, ptr %103, align 4, !tbaa !87
  %105 = load i32, ptr %7, align 4, !tbaa !3
  %106 = add nsw i32 %104, %105
  %107 = sub nsw i32 %106, 1
  %108 = load ptr, ptr %4, align 8, !tbaa !7
  %109 = getelementptr inbounds nuw %struct.lv_area_t, ptr %108, i32 0, i32 2
  store i32 %107, ptr %109, align 4, !tbaa !90
  %110 = load ptr, ptr %4, align 8, !tbaa !7
  %111 = getelementptr inbounds nuw %struct.lv_area_t, ptr %110, i32 0, i32 3
  %112 = load i32, ptr %111, align 4, !tbaa !88
  %113 = load i32, ptr %6, align 4, !tbaa !3
  %114 = sub nsw i32 %112, %113
  %115 = add nsw i32 %114, 1
  %116 = load ptr, ptr %4, align 8, !tbaa !7
  %117 = getelementptr inbounds nuw %struct.lv_area_t, ptr %116, i32 0, i32 1
  store i32 %115, ptr %117, align 4, !tbaa !89
  br label %118

118:                                              ; preds = %2, %86, %49, %17
  store i32 0, ptr %8, align 4
  br label %119

119:                                              ; preds = %118, %16
  call void @llvm.lifetime.end.p0(i64 4, ptr %7) #5
  call void @llvm.lifetime.end.p0(i64 4, ptr %6) #5
  call void @llvm.lifetime.end.p0(i64 4, ptr %5) #5
  %120 = load i32, ptr %8, align 4
  switch i32 %120, label %122 [
    i32 0, label %121
    i32 1, label %121
  ]

121:                                              ; preds = %119, %119
  ret void

122:                                              ; preds = %119
  unreachable
}