; Function Attrs: nounwind uwtable
define void @lv_display_rotate_area(ptr noundef readonly %0, ptr noundef %1) local_unnamed_addr #0 {
  %3 = icmp eq ptr %0, null
  br i1 %3, label %4, label %lv_display_get_rotation.exit

4:                                                ; preds = %2
  %5 = load ptr, ptr getelementptr inbounds nuw (i8, ptr @lv_global, i64 40), align 8, !tbaa !33
  %6 = icmp eq ptr %5, null
  br i1 %6, label %lv_display_get_rotation.exit.thread, label %lv_display_get_rotation.exit

lv_display_get_rotation.exit.thread:              ; preds = %4
  %7 = tail call i32 @lv_area_get_width(ptr noundef %1) #13
  %8 = tail call i32 @lv_area_get_height(ptr noundef %1) #13
  br label %54

lv_display_get_rotation.exit:                     ; preds = %2, %4
  %.06.i = phi ptr [ %5, %4 ], [ %0, %2 ]
  %9 = getelementptr inbounds nuw i8, ptr %.06.i, i64 888
  %10 = load i8, ptr %9, align 8
  %11 = and i8 %10, 7
  %12 = tail call i32 @lv_area_get_width(ptr noundef %1) #13
  %13 = tail call i32 @lv_area_get_height(ptr noundef %1) #13
  switch i8 %11, label %54 [
    i8 3, label %42
    i8 1, label %14
    i8 2, label %27
  ]

14:                                               ; preds = %lv_display_get_rotation.exit
  %15 = getelementptr inbounds nuw i8, ptr %0, i64 4
  %16 = load i32, ptr %15, align 4, !tbaa !16
  %17 = load i32, ptr %1, align 4, !tbaa !83
  %18 = xor i32 %17, -1
  %19 = add i32 %16, %18
  %20 = getelementptr inbounds nuw i8, ptr %1, i64 12
  store i32 %19, ptr %20, align 4, !tbaa !84
  %21 = getelementptr inbounds nuw i8, ptr %1, i64 4
  %22 = load i32, ptr %21, align 4, !tbaa !85
  store i32 %22, ptr %1, align 4, !tbaa !83
  %23 = add i32 %13, -1
  %24 = add i32 %23, %22
  %25 = getelementptr inbounds nuw i8, ptr %1, i64 8
  store i32 %24, ptr %25, align 4, !tbaa !86
  %reass.sub40 = sub i32 %19, %12
  %26 = add i32 %reass.sub40, 1
  store i32 %26, ptr %21, align 4, !tbaa !85
  br label %54

27:                                               ; preds = %lv_display_get_rotation.exit
  %28 = getelementptr inbounds nuw i8, ptr %0, i64 4
  %29 = load i32, ptr %28, align 4, !tbaa !16
  %30 = getelementptr inbounds nuw i8, ptr %1, i64 4
  %31 = load i32, ptr %30, align 4, !tbaa !85
  %32 = xor i32 %31, -1
  %33 = add i32 %29, %32
  %34 = getelementptr inbounds nuw i8, ptr %1, i64 12
  store i32 %33, ptr %34, align 4, !tbaa !84
  %reass.sub = sub i32 %33, %13
  %35 = add i32 %reass.sub, 1
  store i32 %35, ptr %30, align 4, !tbaa !85
  %36 = load i32, ptr %0, align 8, !tbaa !3
  %37 = load i32, ptr %1, align 4, !tbaa !83
  %38 = xor i32 %37, -1
  %39 = add i32 %36, %38
  %40 = getelementptr inbounds nuw i8, ptr %1, i64 8
  store i32 %39, ptr %40, align 4, !tbaa !86
  %reass.sub39 = sub i32 %39, %12
  %41 = add i32 %reass.sub39, 1
  store i32 %41, ptr %1, align 4, !tbaa !83
  br label %54

42:                                               ; preds = %lv_display_get_rotation.exit
  %43 = load i32, ptr %0, align 8, !tbaa !3
  %44 = getelementptr inbounds nuw i8, ptr %1, i64 12
  %45 = load i32, ptr %44, align 4, !tbaa !84
  %46 = xor i32 %45, -1
  %47 = add i32 %43, %46
  store i32 %47, ptr %1, align 4, !tbaa !83
  %48 = getelementptr inbounds nuw i8, ptr %1, i64 8
  %49 = load i32, ptr %48, align 4, !tbaa !86
  store i32 %49, ptr %44, align 4, !tbaa !84
  %50 = add i32 %13, -1
  %51 = add i32 %50, %47
  store i32 %51, ptr %48, align 4, !tbaa !86
  %reass.sub41 = sub i32 %49, %12
  %52 = add i32 %reass.sub41, 1
  %53 = getelementptr inbounds nuw i8, ptr %1, i64 4
  store i32 %52, ptr %53, align 4, !tbaa !85
  br label %54

54:                                               ; preds = %lv_display_get_rotation.exit.thread, %lv_display_get_rotation.exit, %14, %27, %42
  ret void
}